target datalayout = "e-m:e-p270:32:32-p271:32:32-p272:64:64-i64:64-i128:128-f80:128-n8:16:32:64-S128"
target triple = "x86_64-pc-linux-gnu"

@proto_lbtru = internal global i32 0, align 4
@.str.175 = private unnamed_addr constant [30 x i8] c"LBT Reliable Unicast Protocol\00", align 1
@.str.176 = private unnamed_addr constant [7 x i8] c"LBT-RU\00", align 1
@.str.177 = private unnamed_addr constant [6 x i8] c"lbtru\00", align 1
@lbtru_dissector_handle = internal global ptr null, align 8
@.str.178 = private unnamed_addr constant [10 x i8] c"lbm_lbtru\00", align 1
@lbtru_tap_handle = internal global i32 -1, align 4
@.str.179 = private unnamed_addr constant [7 x i8] c"29West\00", align 1
@.str.180 = private unnamed_addr constant [16 x i8] c"source_port_low\00", align 1
@.str.181 = private unnamed_addr constant [38 x i8] c"Source port range low (default 14380)\00", align 1
@.str.182 = private unnamed_addr constant [87 x i8] c"Set the low end of the LBT-RU source UDP port range (context transport_lbtru_port_low)\00", align 1
@global_lbtru_source_port_low = internal global i32 14380, align 4
@.str.183 = private unnamed_addr constant [17 x i8] c"source_port_high\00", align 1
@.str.184 = private unnamed_addr constant [39 x i8] c"Source port range high (default 14389)\00", align 1
@.str.185 = private unnamed_addr constant [89 x i8] c"Set the high end of the LBT-RU source UDP port range (context transport_lbtru_port_high)\00", align 1
@global_lbtru_source_port_high = internal global i32 14389, align 4
@.str.186 = private unnamed_addr constant [18 x i8] c"receiver_port_low\00", align 1
@.str.187 = private unnamed_addr constant [40 x i8] c"Receiver port range low (default 14360)\00", align 1
@.str.188 = private unnamed_addr constant [90 x i8] c"Set the low end of the LBT-RU receiver UDP port range (receiver transport_lbtru_port_low)\00", align 1
@global_lbtru_receiver_port_low = internal global i32 14360, align 4
@.str.189 = private unnamed_addr constant [19 x i8] c"receiver_port_high\00", align 1
@.str.190 = private unnamed_addr constant [41 x i8] c"Receiver port range high (default 14379)\00", align 1
@.str.191 = private unnamed_addr constant [92 x i8] c"Set the high end of the LBT-RU receiver UDP port range (receiver transport_lbtru_port_high)\00", align 1
@global_lbtru_receiver_port_high = internal global i32 14379, align 4
@global_lbtru_expert_separate_naks = internal global i8 0, align 1
@lbtru_expert_separate_naks = internal global i8 0, align 1
@.str.192 = private unnamed_addr constant [21 x i8] c"expert_separate_naks\00", align 1
@.str.193 = private unnamed_addr constant [29 x i8] c"Separate NAKs in Expert Info\00", align 1
@.str.194 = private unnamed_addr constant [78 x i8] c"Separate multiple NAKs from a single packet into distinct Expert Info entries\00", align 1
@global_lbtru_expert_separate_ncfs = internal global i8 0, align 1
@lbtru_expert_separate_ncfs = internal global i8 0, align 1
@.str.195 = private unnamed_addr constant [21 x i8] c"expert_separate_ncfs\00", align 1
@.str.196 = private unnamed_addr constant [29 x i8] c"Separate NCFs in Expert Info\00", align 1
@.str.197 = private unnamed_addr constant [78 x i8] c"Separate multiple NCFs from a single packet into distinct Expert Info entries\00", align 1
@global_lbtru_sequence_analysis = internal global i8 0, align 1
@lbtru_sequence_analysis = internal global i8 0, align 1
@.str.198 = private unnamed_addr constant [18 x i8] c"sequence_analysis\00", align 1
@.str.199 = private unnamed_addr constant [33 x i8] c"Perform Sequence Number Analysis\00", align 1
@.str.200 = private unnamed_addr constant [87 x i8] c"Perform analysis on LBT-RU sequence numbers to determine out-of-order, gaps, loss, etc\00", align 1
@.str.201 = private unnamed_addr constant [17 x i8] c"use_lbtru_domain\00", align 1
@.str.202 = private unnamed_addr constant [21 x i8] c"Use LBT-RU tag table\00", align 1
@.str.203 = private unnamed_addr constant [70 x i8] c"Use table of LBT-RU tags to decode the packet instead of above values\00", align 1
@global_lbtru_use_tag = internal global i8 0, align 1
@.str.204 = private unnamed_addr constant [23 x i8] c"LBT-RU tag definitions\00", align 1
@.str.205 = private unnamed_addr constant [14 x i8] c"lbtru_domains\00", align 1
@lbtru_tag_entry = internal global ptr null, align 8
@lbtru_tag_count = internal global i32 0, align 4
@.str.206 = private unnamed_addr constant [15 x i8] c"tnw_lbtru_tags\00", align 1
@.str.207 = private unnamed_addr constant [12 x i8] c"LBT-RU Tags\00", align 1
@.str.208 = private unnamed_addr constant [30 x i8] c"A table to define LBT-RU tags\00", align 1

; Function Attrs: null_pointer_is_valid sspstrong uwtable
define hidden void @proto_register_lbtru() #0 {
  %1 = alloca ptr, align 8
  %2 = alloca ptr, align 8
  %3 = alloca ptr, align 8
  call void @llvm.lifetime.start.p0(i64 8, ptr %1) #9
  call void @llvm.lifetime.start.p0(i64 8, ptr %2) #9
  call void @llvm.lifetime.start.p0(i64 8, ptr %3) #9
  %4 = call i32 @proto_register_protocol(ptr noundef @.str.175, ptr noundef @.str.176, ptr noundef @.str.177)
  store i32 %4, ptr @proto_lbtru, align 4
  %5 = load i32, ptr @proto_lbtru, align 4
  call void @proto_register_field_array(i32 noundef %5, ptr noundef @proto_register_lbtru.hf, i32 noundef 77)
  call void @proto_register_subtree_array(ptr noundef @proto_register_lbtru.ett, i32 noundef 16)
  %6 = load i32, ptr @proto_lbtru, align 4
  %7 = call ptr @expert_register_protocol(i32 noundef %6)
  store ptr %7, ptr %3, align 8
  %8 = load ptr, ptr %3, align 8
  call void @expert_register_field_array(ptr noundef %8, ptr noundef @proto_register_lbtru.ei, i32 noundef 19)
  %9 = load i32, ptr @proto_lbtru, align 4
  %10 = call ptr @register_dissector(ptr noundef @.str.177, ptr noundef @dissect_lbtru, i32 noundef %9)
  store ptr %10, ptr @lbtru_dissector_handle, align 8
  %11 = call i32 @register_tap(ptr noundef @.str.178)
  store i32 %11, ptr @lbtru_tap_handle, align 4
  %12 = load i32, ptr @proto_lbtru, align 4
  %13 = call ptr @prefs_register_protocol_subtree(ptr noundef @.str.179, i32 noundef %12, ptr noundef @proto_reg_handoff_lbtru)
  store ptr %13, ptr %1, align 8
  %14 = load ptr, ptr %1, align 8
  call void @prefs_register_uint_preference(ptr noundef %14, ptr noundef @.str.180, ptr noundef @.str.181, ptr noundef @.str.182, i32 noundef 10, ptr noundef @global_lbtru_source_port_low)
  %15 = load ptr, ptr %1, align 8
  call void @prefs_register_uint_preference(ptr noundef %15, ptr noundef @.str.183, ptr noundef @.str.184, ptr noundef @.str.185, i32 noundef 10, ptr noundef @global_lbtru_source_port_high)
  %16 = load ptr, ptr %1, align 8
  call void @prefs_register_uint_preference(ptr noundef %16, ptr noundef @.str.186, ptr noundef @.str.187, ptr noundef @.str.188, i32 noundef 10, ptr noundef @global_lbtru_receiver_port_low)
  %17 = load ptr, ptr %1, align 8
  call void @prefs_register_uint_preference(ptr noundef %17, ptr noundef @.str.189, ptr noundef @.str.190, ptr noundef @.str.191, i32 noundef 10, ptr noundef @global_lbtru_receiver_port_high)
  %18 = load i8, ptr @global_lbtru_expert_separate_naks, align 1, !range !6, !noundef !7
  %19 = trunc i8 %18 to i1
  %20 = zext i1 %19 to i8
  store i8 %20, ptr @lbtru_expert_separate_naks, align 1
  %21 = load ptr, ptr %1, align 8
  call void @prefs_register_bool_preference(ptr noundef %21, ptr noundef @.str.192, ptr noundef @.str.193, ptr noundef @.str.194, ptr noundef @global_lbtru_expert_separate_naks)
  %22 = load i8, ptr @global_lbtru_expert_separate_ncfs, align 1, !range !6, !noundef !7
  %23 = trunc i8 %22 to i1
  %24 = zext i1 %23 to i8
  store i8 %24, ptr @lbtru_expert_separate_ncfs, align 1
  %25 = load ptr, ptr %1, align 8
  call void @prefs_register_bool_preference(ptr noundef %25, ptr noundef @.str.195, ptr noundef @.str.196, ptr noundef @.str.197, ptr noundef @global_lbtru_expert_separate_ncfs)
  %26 = load i8, ptr @global_lbtru_sequence_analysis, align 1, !range !6, !noundef !7
  %27 = trunc i8 %26 to i1
  %28 = zext i1 %27 to i8
  store i8 %28, ptr @lbtru_sequence_analysis, align 1
  %29 = load ptr, ptr %1, align 8
  call void @prefs_register_bool_preference(ptr noundef %29, ptr noundef @.str.198, ptr noundef @.str.199, ptr noundef @.str.200, ptr noundef @global_lbtru_sequence_analysis)
  %30 = load ptr, ptr %1, align 8
  call void @prefs_register_bool_preference(ptr noundef %30, ptr noundef @.str.201, ptr noundef @.str.202, ptr noundef @.str.203, ptr noundef @global_lbtru_use_tag)
  %31 = call ptr @uat_new(ptr noundef @.str.204, i64 noundef 24, ptr noundef @.str.205, i1 noundef zeroext true, ptr noundef @lbtru_tag_entry, ptr noundef @lbtru_tag_count, i32 noundef 1, ptr noundef null, ptr noundef @lbtru_tag_copy_cb, ptr noundef @lbtru_tag_update_cb, ptr noundef @lbtru_tag_free_cb, ptr noundef null, ptr noundef null, ptr noundef @lbtru_tag_array)
  store ptr %31, ptr %2, align 8
  %32 = load ptr, ptr %1, align 8
  %33 = load ptr, ptr %2, align 8
  call void @prefs_register_uat_preference(ptr noundef %32, ptr noundef @.str.206, ptr noundef @.str.207, ptr noundef @.str.208, ptr noundef %33)
  call void @llvm.lifetime.end.p0(i64 8, ptr %3) #9
  call void @llvm.lifetime.end.p0(i64 8, ptr %2) #9
  call void @llvm.lifetime.end.p0(i64 8, ptr %1) #9
  ret void
}