; Function Attrs: null_pointer_is_valid sspstrong uwtable
define hidden void @proto_register_lbtru() local_unnamed_addr #0 {
  %1 = tail call i32 @proto_register_protocol(ptr noundef nonnull @.str.175, ptr noundef nonnull @.str.176, ptr noundef nonnull @.str.177)
  store i32 %1, ptr @proto_lbtru, align 4
  tail call void @proto_register_field_array(i32 noundef %1, ptr noundef nonnull @proto_register_lbtru.hf, i32 noundef 77)
  tail call void @proto_register_subtree_array(ptr noundef nonnull @proto_register_lbtru.ett, i32 noundef 16)
  %2 = load i32, ptr @proto_lbtru, align 4
  %3 = tail call ptr @expert_register_protocol(i32 noundef %2)
  tail call void @expert_register_field_array(ptr noundef %3, ptr noundef nonnull @proto_register_lbtru.ei, i32 noundef 19)
  %4 = load i32, ptr @proto_lbtru, align 4
  %5 = tail call ptr @register_dissector(ptr noundef nonnull @.str.177, ptr noundef nonnull @dissect_lbtru, i32 noundef %4)
  store ptr %5, ptr @lbtru_dissector_handle, align 8
  %6 = tail call i32 @register_tap(ptr noundef nonnull @.str.178)
  store i32 %6, ptr @lbtru_tap_handle, align 4
  %7 = load i32, ptr @proto_lbtru, align 4
  %8 = tail call ptr @prefs_register_protocol_subtree(ptr noundef nonnull @.str.179, i32 noundef %7, ptr noundef nonnull @proto_reg_handoff_lbtru)
  tail call void @prefs_register_uint_preference(ptr noundef %8, ptr noundef nonnull @.str.180, ptr noundef nonnull @.str.181, ptr noundef nonnull @.str.182, i32 noundef 10, ptr noundef nonnull @global_lbtru_source_port_low)
  tail call void @prefs_register_uint_preference(ptr noundef %8, ptr noundef nonnull @.str.183, ptr noundef nonnull @.str.184, ptr noundef nonnull @.str.185, i32 noundef 10, ptr noundef nonnull @global_lbtru_source_port_high)
  tail call void @prefs_register_uint_preference(ptr noundef %8, ptr noundef nonnull @.str.186, ptr noundef nonnull @.str.187, ptr noundef nonnull @.str.188, i32 noundef 10, ptr noundef nonnull @global_lbtru_receiver_port_low)
  tail call void @prefs_register_uint_preference(ptr noundef %8, ptr noundef nonnull @.str.189, ptr noundef nonnull @.str.190, ptr noundef nonnull @.str.191, i32 noundef 10, ptr noundef nonnull @global_lbtru_receiver_port_high)
  %9 = load i8, ptr @global_lbtru_expert_separate_naks, align 1, !range !6, !noundef !7
  store i8 %9, ptr @lbtru_expert_separate_naks, align 1
  tail call void @prefs_register_bool_preference(ptr noundef %8, ptr noundef nonnull @.str.192, ptr noundef nonnull @.str.193, ptr noundef nonnull @.str.194, ptr noundef nonnull @global_lbtru_expert_separate_naks)
  %10 = load i8, ptr @global_lbtru_expert_separate_ncfs, align 1, !range !6, !noundef !7
  store i8 %10, ptr @lbtru_expert_separate_ncfs, align 1
  tail call void @prefs_register_bool_preference(ptr noundef %8, ptr noundef nonnull @.str.195, ptr noundef nonnull @.str.196, ptr noundef nonnull @.str.197, ptr noundef nonnull @global_lbtru_expert_separate_ncfs)
  %11 = load i8, ptr @global_lbtru_sequence_analysis, align 1, !range !6, !noundef !7
  store i8 %11, ptr @lbtru_sequence_analysis, align 1
  tail call void @prefs_register_bool_preference(ptr noundef %8, ptr noundef nonnull @.str.198, ptr noundef nonnull @.str.199, ptr noundef nonnull @.str.200, ptr noundef nonnull @global_lbtru_sequence_analysis)
  tail call void @prefs_register_bool_preference(ptr noundef %8, ptr noundef nonnull @.str.201, ptr noundef nonnull @.str.202, ptr noundef nonnull @.str.203, ptr noundef nonnull @global_lbtru_use_tag)
  %12 = tail call ptr @uat_new(ptr noundef nonnull @.str.204, i64 noundef 24, ptr noundef nonnull @.str.205, i1 noundef zeroext true, ptr noundef nonnull @lbtru_tag_entry, ptr noundef nonnull @lbtru_tag_count, i32 noundef 1, ptr noundef null, ptr noundef nonnull @lbtru_tag_copy_cb, ptr noundef nonnull @lbtru_tag_update_cb, ptr noundef nonnull @lbtru_tag_free_cb, ptr noundef null, ptr noundef null, ptr noundef nonnull @lbtru_tag_array)
  tail call void @prefs_register_uat_preference(ptr noundef %8, ptr noundef nonnull @.str.206, ptr noundef nonnull @.str.207, ptr noundef nonnull @.str.208, ptr noundef %12)
  ret void
}